target datalayout = "e-m:e-p270:32:32-p271:32:32-p272:64:64-i64:64-i128:128-f80:128-n8:16:32:64-S128"
target triple = "x86_64-unknown-linux-gnu"

%struct.built_in_curve = type { i32, [8 x i8], i8, ptr, ptr }
%struct.cbs_st = type { ptr, i64 }

@.str = private unnamed_addr constant [123 x i8] c"generated/home/dtcxzyw/WorkSpace/Projects/compilers/llvm-opt-benchmark/bench/libquic/libquic/boringssl/crypto/ec/ec_asn1.c\00", align 1
@OPENSSL_built_in_curves = external constant [0 x %struct.built_in_curve], align 8

; Function Attrs: nounwind uwtable
define hidden ptr @EC_KEY_parse_curve_name(ptr noundef %cbs) #0 {
entry:
  %retval = alloca ptr, align 8
  %cbs.addr = alloca ptr, align 8
  %named_curve = alloca %struct.cbs_st, align 8
  %i = alloca i32, align 4
  %curve = alloca ptr, align 8
  store ptr %cbs, ptr %cbs.addr, align 8
  %0 = load ptr, ptr %cbs.addr, align 8
  %call = call i32 @CBS_get_asn1(ptr noundef %0, ptr noundef %named_curve, i32 noundef 6)
  %tobool = icmp ne i32 %call, 0
  br i1 %tobool, label %if.end, label %if.then

if.then:                                          ; preds = %entry
  call void @ERR_put_error(i32 noundef 15, i32 noundef 0, i32 noundef 128, ptr noundef @.str, i32 noundef 329)
  store ptr null, ptr %retval, align 8
  br label %return

if.end:                                           ; preds = %entry
  store i32 0, ptr %i, align 4
  br label %for.cond

for.cond:                                         ; preds = %for.inc, %if.end
  %1 = load i32, ptr %i, align 4
  %idxprom = zext i32 %1 to i64
  %arrayidx = getelementptr inbounds [0 x %struct.built_in_curve], ptr @OPENSSL_built_in_curves, i64 0, i64 %idxprom
  %nid = getelementptr inbounds %struct.built_in_curve, ptr %arrayidx, i32 0, i32 0
  %2 = load i32, ptr %nid, align 8
  %cmp = icmp ne i32 %2, 0
  br i1 %cmp, label %for.body, label %for.end

for.body:                                         ; preds = %for.cond
  %3 = load i32, ptr %i, align 4
  %idxprom1 = zext i32 %3 to i64
  %arrayidx2 = getelementptr inbounds [0 x %struct.built_in_curve], ptr @OPENSSL_built_in_curves, i64 0, i64 %idxprom1
  store ptr %arrayidx2, ptr %curve, align 8
  %call3 = call i64 @CBS_len(ptr noundef %named_curve)
  %4 = load ptr, ptr %curve, align 8
  %oid_len = getelementptr inbounds %struct.built_in_curve, ptr %4, i32 0, i32 2
  %5 = load i8, ptr %oid_len, align 4
  %conv = zext i8 %5 to i64
  %cmp4 = icmp eq i64 %call3, %conv
  br i1 %cmp4, label %land.lhs.true, label %if.end15

land.lhs.true:                                    ; preds = %for.body
  %call6 = call ptr @CBS_data(ptr noundef %named_curve)
  %6 = load ptr, ptr %curve, align 8
  %oid = getelementptr inbounds %struct.built_in_curve, ptr %6, i32 0, i32 1
  %arraydecay = getelementptr inbounds [8 x i8], ptr %oid, i64 0, i64 0
  %7 = load ptr, ptr %curve, align 8
  %oid_len7 = getelementptr inbounds %struct.built_in_curve, ptr %7, i32 0, i32 2
  %8 = load i8, ptr %oid_len7, align 4
  %conv8 = zext i8 %8 to i64
  %call9 = call i32 @memcmp(ptr noundef %call6, ptr noundef %arraydecay, i64 noundef %conv8) #6
  %cmp10 = icmp eq i32 %call9, 0
  br i1 %cmp10, label %if.then12, label %if.end15

if.then12:                                        ; preds = %land.lhs.true
  %9 = load ptr, ptr %curve, align 8
  %nid13 = getelementptr inbounds %struct.built_in_curve, ptr %9, i32 0, i32 0
  %10 = load i32, ptr %nid13, align 8
  %call14 = call ptr @EC_GROUP_new_by_curve_name(i32 noundef %10)
  store ptr %call14, ptr %retval, align 8
  br label %return

if.end15:                                         ; preds = %land.lhs.true, %for.body
  br label %for.inc

for.inc:                                          ; preds = %if.end15
  %11 = load i32, ptr %i, align 4
  %inc = add i32 %11, 1
  store i32 %inc, ptr %i, align 4
  br label %for.cond, !llvm.loop !10

for.end:                                          ; preds = %for.cond
  call void @ERR_put_error(i32 noundef 15, i32 noundef 0, i32 noundef 123, ptr noundef @.str, i32 noundef 343)
  store ptr null, ptr %retval, align 8
  br label %return

return:                                           ; preds = %for.end, %if.then12, %if.then
  %12 = load ptr, ptr %retval, align 8
  ret ptr %12
}