; Function Attrs: nounwind uwtable
define hidden ptr @EC_KEY_parse_curve_name(ptr noundef %cbs) local_unnamed_addr #0 {
entry:
  %named_curve = alloca %struct.cbs_st, align 8
  %call = call i32 @CBS_get_asn1(ptr noundef %cbs, ptr noundef nonnull %named_curve, i32 noundef 6) #7
  %tobool.not = icmp eq i32 %call, 0
  br i1 %tobool.not, label %if.then, label %for.cond.preheader

for.cond.preheader:                               ; preds = %entry
  %0 = load i32, ptr @OPENSSL_built_in_curves, align 8
  %cmp.not7 = icmp eq i32 %0, 0
  br i1 %cmp.not7, label %for.end, label %for.body

if.then:                                          ; preds = %entry
  call void @ERR_put_error(i32 noundef 15, i32 noundef 0, i32 noundef 128, ptr noundef nonnull @.str, i32 noundef 329) #7
  br label %return

for.body:                                         ; preds = %for.cond.preheader, %for.inc
  %1 = phi i32 [ %3, %for.inc ], [ %0, %for.cond.preheader ]
  %arrayidx9 = phi ptr [ %arrayidx, %for.inc ], [ @OPENSSL_built_in_curves, %for.cond.preheader ]
  %i.08 = phi i32 [ %inc, %for.inc ], [ 0, %for.cond.preheader ]
  %call3 = call i64 @CBS_len(ptr noundef nonnull %named_curve) #7
  %oid_len = getelementptr inbounds nuw i8, ptr %arrayidx9, i64 12
  %2 = load i8, ptr %oid_len, align 4
  %conv = zext i8 %2 to i64
  %cmp4 = icmp eq i64 %call3, %conv
  br i1 %cmp4, label %land.lhs.true, label %for.inc

land.lhs.true:                                    ; preds = %for.body
  %call6 = call ptr @CBS_data(ptr noundef nonnull %named_curve) #7
  %oid = getelementptr inbounds nuw i8, ptr %arrayidx9, i64 4
  %bcmp = call i32 @bcmp(ptr %call6, ptr nonnull %oid, i64 %call3)
  %cmp10 = icmp eq i32 %bcmp, 0
  br i1 %cmp10, label %if.then12, label %for.inc

if.then12:                                        ; preds = %land.lhs.true
  %call14 = call ptr @EC_GROUP_new_by_curve_name(i32 noundef %1) #7
  br label %return

for.inc:                                          ; preds = %for.body, %land.lhs.true
  %inc = add i32 %i.08, 1
  %idxprom = zext i32 %inc to i64
  %arrayidx = getelementptr inbounds nuw [0 x %struct.built_in_curve], ptr @OPENSSL_built_in_curves, i64 0, i64 %idxprom
  %3 = load i32, ptr %arrayidx, align 8
  %cmp.not = icmp eq i32 %3, 0
  br i1 %cmp.not, label %for.end, label %for.body, !llvm.loop !12

for.end:                                          ; preds = %for.inc, %for.cond.preheader
  call void @ERR_put_error(i32 noundef 15, i32 noundef 0, i32 noundef 123, ptr noundef nonnull @.str, i32 noundef 343) #7
  br label %return

return:                                           ; preds = %for.end, %if.then12, %if.then
  %retval.0 = phi ptr [ %call14, %if.then12 ], [ null, %for.end ], [ null, %if.then ]
  ret ptr %retval.0
}